target datalayout = "e-m:e-p270:32:32-p271:32:32-p272:64:64-i64:64-i128:128-f80:128-n8:16:32:64-S128"
target triple = "x86_64-pc-linux-gnu"

%struct.SDL_Renderer = type { ptr, ptr, ptr, ptr, ptr, ptr, ptr, ptr, ptr, ptr, ptr, ptr, ptr, ptr, ptr, ptr, ptr, ptr, ptr, ptr, ptr, ptr, ptr, ptr, ptr, ptr, ptr, ptr, ptr, ptr, i32, i8, ptr, i8, i8, i8, i64, i64, ptr, %struct.SDL_RenderViewState, %struct.SDL_FPoint, i32, i32, ptr, ptr, ptr, i32, float, float, float, float, %struct.SDL_FColor, i32, i32, i32, ptr, ptr, ptr, ptr, i32, %struct.SDL_FColor, float, %struct.SDL_Rect, %struct.SDL_Rect, i8, i8, i8, i8, ptr, i64, i64, i8, ptr, ptr, i32, ptr, i8, ptr, ptr }
%struct.SDL_RenderViewState = type { i32, i32, %struct.SDL_Rect, %struct.SDL_Rect, %struct.SDL_Rect, %struct.SDL_Rect, i8, %struct.SDL_FPoint, i32, i32, i32, %struct.SDL_FRect, %struct.SDL_FRect, %struct.SDL_FPoint, %struct.SDL_FPoint, %struct.SDL_FPoint }
%struct.SDL_FRect = type { float, float, float, float }
%struct.SDL_FPoint = type { float, float }
%struct.SDL_FColor = type { float, float, float, float }
%struct.SDL_Rect = type { i32, i32, i32, i32 }
%struct.GLES2_RenderData = type { ptr, i8, i8, i8, ptr, ptr, ptr, ptr, ptr, ptr, ptr, ptr, ptr, ptr, ptr, ptr, ptr, ptr, ptr, ptr, ptr, ptr, ptr, ptr, ptr, ptr, ptr, ptr, ptr, ptr, ptr, ptr, ptr, ptr, ptr, ptr, ptr, ptr, ptr, ptr, ptr, ptr, ptr, ptr, ptr, ptr, ptr, ptr, ptr, ptr, ptr, ptr, ptr, ptr, ptr, ptr, ptr, ptr, ptr, ptr, ptr, ptr, i32, [16 x i32], %struct.GLES2_ProgramCache, i8, i8, i8, i8, %struct.GLES2_DrawStateCache, i32 }
%struct.GLES2_ProgramCache = type { i32, ptr, ptr }
%struct.GLES2_DrawStateCache = type { %struct.SDL_Rect, i8, ptr, ptr, i32, i8, i8, i8, %struct.SDL_Rect, i8, i8, %struct.SDL_FColor, i8, i32, i32, ptr, ptr, [4 x [4 x float]] }

@.str.101 = private unnamed_addr constant [8 x i8] c"generic\00", align 1
@.str.102 = private unnamed_addr constant [26 x i8] c"%s: %s (%d): %s %s (0x%X)\00", align 1
@.str.103 = private unnamed_addr constant [16 x i8] c"GL_INVALID_ENUM\00", align 1
@.str.104 = private unnamed_addr constant [17 x i8] c"GL_INVALID_VALUE\00", align 1
@.str.105 = private unnamed_addr constant [21 x i8] c"GL_INVALID_OPERATION\00", align 1
@.str.106 = private unnamed_addr constant [17 x i8] c"GL_OUT_OF_MEMORY\00", align 1
@.str.107 = private unnamed_addr constant [12 x i8] c"GL_NO_ERROR\00", align 1
@.str.108 = private unnamed_addr constant [8 x i8] c"UNKNOWN\00", align 1

; Function Attrs: nounwind uwtable
define internal ptr @GL_TranslateError(i32 noundef %0) #0 {
  %2 = alloca ptr, align 8
  %3 = alloca i32, align 4
  store i32 %0, ptr %3, align 4
  %4 = load i32, ptr %3, align 4
  switch i32 %4, label %10 [
    i32 1280, label %5
    i32 1281, label %6
    i32 1282, label %7
    i32 1285, label %8
    i32 0, label %9
  ]

5:                                                ; preds = %1
  store ptr @.str.103, ptr %2, align 8
  br label %11

6:                                                ; preds = %1
  store ptr @.str.104, ptr %2, align 8
  br label %11

7:                                                ; preds = %1
  store ptr @.str.105, ptr %2, align 8
  br label %11

8:                                                ; preds = %1
  store ptr @.str.106, ptr %2, align 8
  br label %11

9:                                                ; preds = %1
  store ptr @.str.107, ptr %2, align 8
  br label %11

10:                                               ; preds = %1
  store ptr @.str.108, ptr %2, align 8
  br label %11

11:                                               ; preds = %10, %9, %8, %7, %6, %5
  %12 = load ptr, ptr %2, align 8
  ret ptr %12
}

; Function Attrs: nounwind uwtable
define internal zeroext i1 @GL_CheckAllErrors(ptr noundef %0, ptr noundef %1, ptr noundef %2, i32 noundef %3, ptr noundef %4) #0 {
  %6 = alloca i1, align 1
  %7 = alloca ptr, align 8
  %8 = alloca ptr, align 8
  %9 = alloca ptr, align 8
  %10 = alloca i32, align 4
  %11 = alloca ptr, align 8
  %12 = alloca ptr, align 8
  %13 = alloca i8, align 1
  %14 = alloca i32, align 4
  %15 = alloca i32, align 4
  store ptr %0, ptr %7, align 8
  store ptr %1, ptr %8, align 8
  store ptr %2, ptr %9, align 8
  store i32 %3, ptr %10, align 4
  store ptr %4, ptr %11, align 8
  call void @llvm.lifetime.start.p0(i64 8, ptr %12) #6
  %16 = load ptr, ptr %8, align 8
  %17 = getelementptr inbounds nuw %struct.SDL_Renderer, ptr %16, i32 0, i32 77
  %18 = load ptr, ptr %17, align 8
  store ptr %18, ptr %12, align 8
  call void @llvm.lifetime.start.p0(i64 1, ptr %13) #6
  store i8 1, ptr %13, align 1
  %19 = load ptr, ptr %12, align 8
  %20 = getelementptr inbounds nuw %struct.GLES2_RenderData, ptr %19, i32 0, i32 1
  %21 = load i8, ptr %20, align 8, !range !3, !noundef !4
  %22 = trunc i8 %21 to i1
  br i1 %22, label %24, label %23

23:                                               ; preds = %5
  store i1 true, ptr %6, align 1
  store i32 1, ptr %14, align 4
  br label %59

24:                                               ; preds = %5
  br label %25

25:                                               ; preds = %55, %24
  call void @llvm.lifetime.start.p0(i64 4, ptr %15) #6
  %26 = load ptr, ptr %12, align 8
  %27 = getelementptr inbounds nuw %struct.GLES2_RenderData, ptr %26, i32 0, i32 27
  %28 = load ptr, ptr %27, align 8
  %29 = call i32 %28()
  store i32 %29, ptr %15, align 4
  %30 = load i32, ptr %15, align 4
  %31 = icmp ne i32 %30, 0
  br i1 %31, label %32, label %51

32:                                               ; preds = %25
  %33 = load ptr, ptr %7, align 8
  %34 = icmp ne ptr %33, null
  br i1 %34, label %35, label %41

35:                                               ; preds = %32
  %36 = load ptr, ptr %7, align 8
  %37 = getelementptr inbounds i8, ptr %36, i64 0
  %38 = load i8, ptr %37, align 1
  %39 = sext i8 %38 to i32
  %40 = icmp eq i32 %39, 0
  br i1 %40, label %41, label %42

41:                                               ; preds = %35, %32
  store ptr @.str.101, ptr %7, align 8
  br label %42

42:                                               ; preds = %41, %35
  %43 = load ptr, ptr %7, align 8
  %44 = load ptr, ptr %9, align 8
  %45 = load i32, ptr %10, align 4
  %46 = load ptr, ptr %11, align 8
  %47 = load i32, ptr %15, align 4
  %48 = call ptr @GL_TranslateError(i32 noundef %47)
  %49 = load i32, ptr %15, align 4
  %50 = call zeroext i1 (ptr, ...) @SDL_SetError_REAL(ptr noundef @.str.102, ptr noundef %43, ptr noundef %44, i32 noundef %45, ptr noundef %46, ptr noundef %48, i32 noundef %49)
  store i8 0, ptr %13, align 1
  br label %52

51:                                               ; preds = %25
  store i32 2, ptr %14, align 4
  br label %53

52:                                               ; preds = %42
  store i32 0, ptr %14, align 4
  br label %53

53:                                               ; preds = %52, %51
  call void @llvm.lifetime.end.p0(i64 4, ptr %15) #6
  %54 = load i32, ptr %14, align 4
  switch i32 %54, label %61 [
    i32 0, label %55
    i32 2, label %56
  ]

55:                                               ; preds = %53
  br label %25

56:                                               ; preds = %53
  %57 = load i8, ptr %13, align 1, !range !3, !noundef !4
  %58 = trunc i8 %57 to i1
  store i1 %58, ptr %6, align 1
  store i32 1, ptr %14, align 4
  br label %59

59:                                               ; preds = %56, %23
  call void @llvm.lifetime.end.p0(i64 1, ptr %13) #6
  call void @llvm.lifetime.end.p0(i64 8, ptr %12) #6
  %60 = load i1, ptr %6, align 1
  ret i1 %60

61:                                               ; preds = %53
  unreachable
}