; Function Attrs: nounwind uwtable
define internal fastcc void @GL_CheckAllErrors(ptr noundef %0, ptr readonly captures(none) %.696.val, i32 noundef range(i32 1542, 2290) %1, ptr noundef %2) unnamed_addr #0 {
  %4 = getelementptr inbounds nuw i8, ptr %.696.val, i64 8
  %5 = load i8, ptr %4, align 8, !range !5, !noundef !6
  %6 = trunc nuw i8 %5 to i1
  br i1 %6, label %.preheader, label %.loopexit

.preheader:                                       ; preds = %3
  %7 = getelementptr inbounds nuw i8, ptr %.696.val, i64 200
  %8 = load ptr, ptr %7, align 8
  %9 = tail call i32 %8() #10
  %.not6 = icmp eq i32 %9, 0
  br i1 %.not6, label %.loopexit, label %.lr.ph

.lr.ph:                                           ; preds = %.preheader, %18
  %10 = phi i32 [ %21, %18 ], [ %9, %.preheader ]
  %.0167 = phi ptr [ %.117, %18 ], [ %0, %.preheader ]
  %.not19 = icmp eq ptr %.0167, null
  br i1 %.not19, label %14, label %11

11:                                               ; preds = %.lr.ph
  %12 = load i8, ptr %.0167, align 1
  %13 = icmp eq i8 %12, 0
  br i1 %13, label %14, label %15

14:                                               ; preds = %11, %.lr.ph
  br label %15

15:                                               ; preds = %14, %11
  %.117 = phi ptr [ @.str.101, %14 ], [ %.0167, %11 ]
  %switch.tableidx = add i32 %10, -1280
  %16 = icmp ult i32 %switch.tableidx, 6
  br i1 %16, label %switch.lookup, label %18

switch.lookup:                                    ; preds = %15
  %17 = zext nneg i32 %switch.tableidx to i64
  %switch.gep = getelementptr inbounds nuw [6 x ptr], ptr @switch.table.GL_CheckAllErrors, i64 0, i64 %17
  %switch.load = load ptr, ptr %switch.gep, align 8
  br label %18

18:                                               ; preds = %15, %switch.lookup
  %.0.i = phi ptr [ %switch.load, %switch.lookup ], [ @.str.108, %15 ]
  %19 = tail call zeroext i1 (ptr, ...) @SDL_SetError_REAL(ptr noundef nonnull @.str.102, ptr noundef nonnull %.117, ptr noundef nonnull @.str.6, i32 noundef %1, ptr noundef %2, ptr noundef nonnull %.0.i, i32 noundef %10) #10
  %20 = load ptr, ptr %7, align 8
  %21 = tail call i32 %20() #10
  %.not = icmp eq i32 %21, 0
  br i1 %.not, label %.loopexit, label %.lr.ph

.loopexit:                                        ; preds = %18, %.preheader, %3
  ret void
}